; Function Attrs: mustprogress nounwind uwtable
define void @_ZN17IOPluginContainer5clearEv(ptr noundef nonnull align 8 dereferenceable(72) %0) local_unnamed_addr #5 align 2 personality ptr @__gxx_personality_v0 {
  %2 = load ptr, ptr %0, align 8
  %3 = getelementptr inbounds nuw i8, ptr %0, i64 8
  %4 = load ptr, ptr %3, align 8
  %.not.i.i = icmp eq ptr %4, %2
  br i1 %.not.i.i, label %_ZNSt6vectorIP8IOPluginSaIS1_EE5clearEv.exit, label %5

5:                                                ; preds = %1
  store ptr %2, ptr %3, align 8
  br label %_ZNSt6vectorIP8IOPluginSaIS1_EE5clearEv.exit

_ZNSt6vectorIP8IOPluginSaIS1_EE5clearEv.exit:     ; preds = %1, %5
  %6 = getelementptr inbounds nuw i8, ptr %0, i64 24
  tail call void @_ZN4QMapI7QStringP8IOPluginE5clearEv(ptr noundef nonnull align 8 dereferenceable(8) %6)
  %7 = getelementptr inbounds nuw i8, ptr %0, i64 32
  tail call void @_ZN4QMapI7QStringP8IOPluginE5clearEv(ptr noundef nonnull align 8 dereferenceable(8) %7)
  %8 = getelementptr inbounds nuw i8, ptr %0, i64 40
  tail call void @_ZN4QMapI7QStringP8IOPluginE5clearEv(ptr noundef nonnull align 8 dereferenceable(8) %8)
  ret void
}